
drop_the_beat_easy:     file format elf32-i386


Disassembly of section .init:

08048398 <_init>:
 8048398:	53                   	push   %ebx
 8048399:	83 ec 08             	sub    $0x8,%esp
 804839c:	e8 cf 00 00 00       	call   8048470 <__x86.get_pc_thunk.bx>
 80483a1:	81 c3 5f 1c 00 00    	add    $0x1c5f,%ebx
 80483a7:	8b 83 fc ff ff ff    	mov    -0x4(%ebx),%eax
 80483ad:	85 c0                	test   %eax,%eax
 80483af:	74 05                	je     80483b6 <_init+0x1e>
 80483b1:	e8 7a 00 00 00       	call   8048430 <__gmon_start__@plt>
 80483b6:	83 c4 08             	add    $0x8,%esp
 80483b9:	5b                   	pop    %ebx
 80483ba:	c3                   	ret

Disassembly of section .plt:

080483c0 <.plt>:
 80483c0:	ff 35 04 a0 04 08    	pushl  0x804a004
 80483c6:	ff 25 08 a0 04 08    	jmp    *0x804a008
 80483cc:	00 00                	add    %al,(%eax)
	...

080483d0 <read@plt>:
 80483d0:	ff 25 0c a0 04 08    	jmp    *0x804a00c
 80483d6:	68 00 00 00 00       	push   $0x0
 80483db:	e9 e0 ff ff ff       	jmp    80483c0 <.plt>

080483e0 <puts@plt>:
 80483e0:	ff 25 10 a0 04 08    	jmp    *0x804a010
 80483e6:	68 08 00 00 00       	push   $0x8
 80483eb:	e9 d0 ff ff ff       	jmp    80483c0 <.plt>

080483f0 <exit@plt>:
 80483f0:	ff 25 14 a0 04 08    	jmp    *0x804a014
 80483f6:	68 10 00 00 00       	push   $0x10
 80483fb:	e9 c0 ff ff ff       	jmp    80483c0 <.plt>

08048400 <__libc_start_main@plt>:
 8048400:	ff 25 18 a0 04 08    	jmp    *0x804a018
 8048406:	68 18 00 00 00       	push   $0x18
 804840b:	e9 b0 ff ff ff       	jmp    80483c0 <.plt>

08048410 <setvbuf@plt>:
 8048410:	ff 25 1c a0 04 08    	jmp    *0x804a01c
 8048416:	68 20 00 00 00       	push   $0x20
 804841b:	e9 a0 ff ff ff       	jmp    80483c0 <.plt>

08048420 <__isoc99_scanf@plt>:
 8048420:	ff 25 20 a0 04 08    	jmp    *0x804a020
 8048426:	68 28 00 00 00       	push   $0x28
 804842b:	e9 90 ff ff ff       	jmp    80483c0 <.plt>

Disassembly of section .plt.got:

08048430 <__gmon_start__@plt>:
 8048430:	ff 25 fc 9f 04 08    	jmp    *0x8049ffc
 8048436:	66 90                	xchg   %ax,%ax

Disassembly of section .text:

08048440 <_start>:
 8048440:	31 ed                	xor    %ebp,%ebp
 8048442:	5e                   	pop    %esi
 8048443:	89 e1                	mov    %esp,%ecx
 8048445:	83 e4 f0             	and    $0xfffffff0,%esp
 8048448:	50                   	push   %eax
 8048449:	54                   	push   %esp
 804844a:	52                   	push   %edx
 804844b:	68 e0 86 04 08       	push   $0x80486e0
 8048450:	68 80 86 04 08       	push   $0x8048680
 8048455:	51                   	push   %ecx
 8048456:	56                   	push   %esi
 8048457:	68 3b 85 04 08       	push   $0x804853b
 804845c:	e8 9f ff ff ff       	call   8048400 <__libc_start_main@plt>
 8048461:	f4                   	hlt
 8048462:	66 90                	xchg   %ax,%ax
 8048464:	66 90                	xchg   %ax,%ax
 8048466:	66 90                	xchg   %ax,%ax
 8048468:	66 90                	xchg   %ax,%ax
 804846a:	66 90                	xchg   %ax,%ax
 804846c:	66 90                	xchg   %ax,%ax
 804846e:	66 90                	xchg   %ax,%ax

08048470 <__x86.get_pc_thunk.bx>:
 8048470:	8b 1c 24             	mov    (%esp),%ebx
 8048473:	c3                   	ret
 8048474:	66 90                	xchg   %ax,%ax
 8048476:	66 90                	xchg   %ax,%ax
 8048478:	66 90                	xchg   %ax,%ax
 804847a:	66 90                	xchg   %ax,%ax
 804847c:	66 90                	xchg   %ax,%ax
 804847e:	66 90                	xchg   %ax,%ax

08048480 <deregister_tm_clones>:
 8048480:	b8 2f a0 04 08       	mov    $0x804a02f,%eax
 8048485:	2d 2c a0 04 08       	sub    $0x804a02c,%eax
 804848a:	83 f8 06             	cmp    $0x6,%eax
 804848d:	76 1a                	jbe    80484a9 <deregister_tm_clones+0x29>
 804848f:	b8 00 00 00 00       	mov    $0x0,%eax
 8048494:	85 c0                	test   %eax,%eax
 8048496:	74 11                	je     80484a9 <deregister_tm_clones+0x29>
 8048498:	55                   	push   %ebp
 8048499:	89 e5                	mov    %esp,%ebp
 804849b:	83 ec 14             	sub    $0x14,%esp
 804849e:	68 2c a0 04 08       	push   $0x804a02c
 80484a3:	ff d0                	call   *%eax
 80484a5:	83 c4 10             	add    $0x10,%esp
 80484a8:	c9                   	leave
 80484a9:	f3 c3                	repz ret
 80484ab:	90                   	nop
 80484ac:	8d 74 26 00          	lea    0x0(%esi,%eiz,1),%esi

080484b0 <register_tm_clones>:
 80484b0:	b8 2c a0 04 08       	mov    $0x804a02c,%eax
 80484b5:	2d 2c a0 04 08       	sub    $0x804a02c,%eax
 80484ba:	c1 f8 02             	sar    $0x2,%eax
 80484bd:	89 c2                	mov    %eax,%edx
 80484bf:	c1 ea 1f             	shr    $0x1f,%edx
 80484c2:	01 d0                	add    %edx,%eax
 80484c4:	d1 f8                	sar    %eax
 80484c6:	74 1b                	je     80484e3 <register_tm_clones+0x33>
 80484c8:	ba 00 00 00 00       	mov    $0x0,%edx
 80484cd:	85 d2                	test   %edx,%edx
 80484cf:	74 12                	je     80484e3 <register_tm_clones+0x33>
 80484d1:	55                   	push   %ebp
 80484d2:	89 e5                	mov    %esp,%ebp
 80484d4:	83 ec 10             	sub    $0x10,%esp
 80484d7:	50                   	push   %eax
 80484d8:	68 2c a0 04 08       	push   $0x804a02c
 80484dd:	ff d2                	call   *%edx
 80484df:	83 c4 10             	add    $0x10,%esp
 80484e2:	c9                   	leave
 80484e3:	f3 c3                	repz ret
 80484e5:	8d 74 26 00          	lea    0x0(%esi,%eiz,1),%esi
 80484e9:	8d bc 27 00 00 00 00 	lea    0x0(%edi,%eiz,1),%edi

080484f0 <__do_global_dtors_aux>:
 80484f0:	80 3d 48 a0 04 08 00 	cmpb   $0x0,0x804a048
 80484f7:	75 13                	jne    804850c <__do_global_dtors_aux+0x1c>
 80484f9:	55                   	push   %ebp
 80484fa:	89 e5                	mov    %esp,%ebp
 80484fc:	83 ec 08             	sub    $0x8,%esp
 80484ff:	e8 7c ff ff ff       	call   8048480 <deregister_tm_clones>
 8048504:	c6 05 48 a0 04 08 01 	movb   $0x1,0x804a048
 804850b:	c9                   	leave
 804850c:	f3 c3                	repz ret
 804850e:	66 90                	xchg   %ax,%ax

08048510 <frame_dummy>:
 8048510:	b8 10 9f 04 08       	mov    $0x8049f10,%eax
 8048515:	8b 10                	mov    (%eax),%edx
 8048517:	85 d2                	test   %edx,%edx
 8048519:	75 05                	jne    8048520 <frame_dummy+0x10>
 804851b:	eb 93                	jmp    80484b0 <register_tm_clones>
 804851d:	8d 76 00             	lea    0x0(%esi),%esi
 8048520:	ba 00 00 00 00       	mov    $0x0,%edx
 8048525:	85 d2                	test   %edx,%edx
 8048527:	74 f2                	je     804851b <frame_dummy+0xb>
 8048529:	55                   	push   %ebp
 804852a:	89 e5                	mov    %esp,%ebp
 804852c:	83 ec 14             	sub    $0x14,%esp
 804852f:	50                   	push   %eax
 8048530:	ff d2                	call   *%edx
 8048532:	83 c4 10             	add    $0x10,%esp
 8048535:	c9                   	leave
 8048536:	e9 75 ff ff ff       	jmp    80484b0 <register_tm_clones>

0804853b <main>:
 804853b:	55                   	push   %ebp
 804853c:	89 e5                	mov    %esp,%ebp
 804853e:	83 ec 68             	sub    $0x68,%esp
 8048541:	a1 44 a0 04 08       	mov    0x804a044,%eax
 8048546:	6a 00                	push   $0x0
 8048548:	6a 02                	push   $0x2
 804854a:	6a 00                	push   $0x0
 804854c:	50                   	push   %eax
 804854d:	e8 be fe ff ff       	call   8048410 <setvbuf@plt>
 8048552:	83 c4 10             	add    $0x10,%esp
 8048555:	a1 40 a0 04 08       	mov    0x804a040,%eax
 804855a:	6a 00                	push   $0x0
 804855c:	6a 02                	push   $0x2
 804855e:	6a 00                	push   $0x0
 8048560:	50                   	push   %eax
 8048561:	e8 aa fe ff ff       	call   8048410 <setvbuf@plt>
 8048566:	83 c4 10             	add    $0x10,%esp
 8048569:	68 00 87 04 08       	push   $0x8048700
 804856e:	e8 6d fe ff ff       	call   80483e0 <puts@plt>
 8048573:	83 c4 04             	add    $0x4,%esp
 8048576:	68 6c 87 04 08       	push   $0x804876c
 804857b:	e8 60 fe ff ff       	call   80483e0 <puts@plt>
 8048580:	83 c4 04             	add    $0x4,%esp
 8048583:	68 d8 87 04 08       	push   $0x80487d8
 8048588:	e8 53 fe ff ff       	call   80483e0 <puts@plt>
 804858d:	83 c4 04             	add    $0x4,%esp
 8048590:	68 44 88 04 08       	push   $0x8048844
 8048595:	e8 46 fe ff ff       	call   80483e0 <puts@plt>
 804859a:	83 c4 04             	add    $0x4,%esp
 804859d:	68 b0 88 04 08       	push   $0x80488b0
 80485a2:	e8 39 fe ff ff       	call   80483e0 <puts@plt>
 80485a7:	83 c4 04             	add    $0x4,%esp
 80485aa:	68 1c 89 04 08       	push   $0x804891c
 80485af:	e8 2c fe ff ff       	call   80483e0 <puts@plt>
 80485b4:	83 c4 04             	add    $0x4,%esp
 80485b7:	68 88 89 04 08       	push   $0x8048988
 80485bc:	e8 1f fe ff ff       	call   80483e0 <puts@plt>
 80485c1:	83 c4 04             	add    $0x4,%esp
 80485c4:	68 f3 89 04 08       	push   $0x80489f3
 80485c9:	e8 12 fe ff ff       	call   80483e0 <puts@plt>
 80485ce:	83 c4 04             	add    $0x4,%esp
 80485d1:	68 f4 89 04 08       	push   $0x80489f4
 80485d6:	e8 05 fe ff ff       	call   80483e0 <puts@plt>
 80485db:	83 c4 04             	add    $0x4,%esp
 80485de:	68 f3 89 04 08       	push   $0x80489f3
 80485e3:	e8 f8 fd ff ff       	call   80483e0 <puts@plt>
 80485e8:	83 c4 04             	add    $0x4,%esp
 80485eb:	68 10 8a 04 08       	push   $0x8048a10
 80485f0:	e8 eb fd ff ff       	call   80483e0 <puts@plt>
 80485f5:	83 c4 04             	add    $0x4,%esp
 80485f8:	68 24 8a 04 08       	push   $0x8048a24
 80485fd:	e8 de fd ff ff       	call   80483e0 <puts@plt>
 8048602:	83 c4 04             	add    $0x4,%esp
 8048605:	8d 45 98             	lea    -0x68(%ebp),%eax
 8048608:	50                   	push   %eax
 8048609:	68 3a 8a 04 08       	push   $0x8048a3a
 804860e:	e8 0d fe ff ff       	call   8048420 <__isoc99_scanf@plt>
 8048613:	83 c4 08             	add    $0x8,%esp
 8048616:	8b 45 98             	mov    -0x68(%ebp),%eax
 8048619:	83 f8 01             	cmp    $0x1,%eax
 804861c:	75 40                	jne    804865e <main+0x123>
 804861e:	68 3d 8a 04 08       	push   $0x8048a3d
 8048623:	e8 b8 fd ff ff       	call   80483e0 <puts@plt>
 8048628:	83 c4 04             	add    $0x4,%esp
 804862b:	68 2c 01 00 00       	push   $0x12c
 8048630:	8d 45 9c             	lea    -0x64(%ebp),%eax
 8048633:	50                   	push   %eax
 8048634:	6a 00                	push   $0x0
 8048636:	e8 95 fd ff ff       	call   80483d0 <read@plt>
 804863b:	83 c4 0c             	add    $0xc,%esp
 804863e:	8d 45 9c             	lea    -0x64(%ebp),%eax
 8048641:	50                   	push   %eax
 8048642:	e8 99 fd ff ff       	call   80483e0 <puts@plt>
 8048647:	83 c4 04             	add    $0x4,%esp
 804864a:	68 4e 8a 04 08       	push   $0x8048a4e
 804864f:	e8 8c fd ff ff       	call   80483e0 <puts@plt>
 8048654:	83 c4 04             	add    $0x4,%esp
 8048657:	b8 00 00 00 00       	mov    $0x0,%eax
 804865c:	eb 14                	jmp    8048672 <main+0x137>
 804865e:	68 68 8a 04 08       	push   $0x8048a68
 8048663:	e8 78 fd ff ff       	call   80483e0 <puts@plt>
 8048668:	83 c4 04             	add    $0x4,%esp
 804866b:	6a 01                	push   $0x1
 804866d:	e8 7e fd ff ff       	call   80483f0 <exit@plt>
 8048672:	c9                   	leave
 8048673:	c3                   	ret
 8048674:	66 90                	xchg   %ax,%ax
 8048676:	66 90                	xchg   %ax,%ax
 8048678:	66 90                	xchg   %ax,%ax
 804867a:	66 90                	xchg   %ax,%ax
 804867c:	66 90                	xchg   %ax,%ax
 804867e:	66 90                	xchg   %ax,%ax

08048680 <__libc_csu_init>:
 8048680:	55                   	push   %ebp
 8048681:	57                   	push   %edi
 8048682:	56                   	push   %esi
 8048683:	53                   	push   %ebx
 8048684:	e8 e7 fd ff ff       	call   8048470 <__x86.get_pc_thunk.bx>
 8048689:	81 c3 77 19 00 00    	add    $0x1977,%ebx
 804868f:	83 ec 0c             	sub    $0xc,%esp
 8048692:	8b 6c 24 20          	mov    0x20(%esp),%ebp
 8048696:	8d b3 0c ff ff ff    	lea    -0xf4(%ebx),%esi
 804869c:	e8 f7 fc ff ff       	call   8048398 <_init>
 80486a1:	8d 83 08 ff ff ff    	lea    -0xf8(%ebx),%eax
 80486a7:	29 c6                	sub    %eax,%esi
 80486a9:	c1 fe 02             	sar    $0x2,%esi
 80486ac:	85 f6                	test   %esi,%esi
 80486ae:	74 25                	je     80486d5 <__libc_csu_init+0x55>
 80486b0:	31 ff                	xor    %edi,%edi
 80486b2:	8d b6 00 00 00 00    	lea    0x0(%esi),%esi
 80486b8:	83 ec 04             	sub    $0x4,%esp
 80486bb:	ff 74 24 2c          	pushl  0x2c(%esp)
 80486bf:	ff 74 24 2c          	pushl  0x2c(%esp)
 80486c3:	55                   	push   %ebp
 80486c4:	ff 94 bb 08 ff ff ff 	call   *-0xf8(%ebx,%edi,4)
 80486cb:	83 c7 01             	add    $0x1,%edi
 80486ce:	83 c4 10             	add    $0x10,%esp
 80486d1:	39 f7                	cmp    %esi,%edi
 80486d3:	75 e3                	jne    80486b8 <__libc_csu_init+0x38>
 80486d5:	83 c4 0c             	add    $0xc,%esp
 80486d8:	5b                   	pop    %ebx
 80486d9:	5e                   	pop    %esi
 80486da:	5f                   	pop    %edi
 80486db:	5d                   	pop    %ebp
 80486dc:	c3                   	ret
 80486dd:	8d 76 00             	lea    0x0(%esi),%esi

080486e0 <__libc_csu_fini>:
 80486e0:	f3 c3                	repz ret

Disassembly of section .fini:

080486e4 <_fini>:
 80486e4:	53                   	push   %ebx
 80486e5:	83 ec 08             	sub    $0x8,%esp
 80486e8:	e8 83 fd ff ff       	call   8048470 <__x86.get_pc_thunk.bx>
 80486ed:	81 c3 13 19 00 00    	add    $0x1913,%ebx
 80486f3:	83 c4 08             	add    $0x8,%esp
 80486f6:	5b                   	pop    %ebx
 80486f7:	c3                   	ret
