
oneshot_onekill:     file format elf32-i386


Disassembly of section .init:

08048378 <_init>:
 8048378:	53                   	push   %ebx
 8048379:	83 ec 08             	sub    $0x8,%esp
 804837c:	e8 cf 00 00 00       	call   8048450 <__x86.get_pc_thunk.bx>
 8048381:	81 c3 7f 1c 00 00    	add    $0x1c7f,%ebx
 8048387:	8b 83 fc ff ff ff    	mov    -0x4(%ebx),%eax
 804838d:	85 c0                	test   %eax,%eax
 804838f:	74 05                	je     8048396 <_init+0x1e>
 8048391:	e8 7a 00 00 00       	call   8048410 <__gmon_start__@plt>
 8048396:	83 c4 08             	add    $0x8,%esp
 8048399:	5b                   	pop    %ebx
 804839a:	c3                   	ret

Disassembly of section .plt:

080483a0 <.plt>:
 80483a0:	ff 35 04 a0 04 08    	pushl  0x804a004
 80483a6:	ff 25 08 a0 04 08    	jmp    *0x804a008
 80483ac:	00 00                	add    %al,(%eax)
	...

080483b0 <printf@plt>:
 80483b0:	ff 25 0c a0 04 08    	jmp    *0x804a00c
 80483b6:	68 00 00 00 00       	push   $0x0
 80483bb:	e9 e0 ff ff ff       	jmp    80483a0 <.plt>

080483c0 <gets@plt>:
 80483c0:	ff 25 10 a0 04 08    	jmp    *0x804a010
 80483c6:	68 08 00 00 00       	push   $0x8
 80483cb:	e9 d0 ff ff ff       	jmp    80483a0 <.plt>

080483d0 <puts@plt>:
 80483d0:	ff 25 14 a0 04 08    	jmp    *0x804a014
 80483d6:	68 10 00 00 00       	push   $0x10
 80483db:	e9 c0 ff ff ff       	jmp    80483a0 <.plt>

080483e0 <system@plt>:
 80483e0:	ff 25 18 a0 04 08    	jmp    *0x804a018
 80483e6:	68 18 00 00 00       	push   $0x18
 80483eb:	e9 b0 ff ff ff       	jmp    80483a0 <.plt>

080483f0 <__libc_start_main@plt>:
 80483f0:	ff 25 1c a0 04 08    	jmp    *0x804a01c
 80483f6:	68 20 00 00 00       	push   $0x20
 80483fb:	e9 a0 ff ff ff       	jmp    80483a0 <.plt>

08048400 <setvbuf@plt>:
 8048400:	ff 25 20 a0 04 08    	jmp    *0x804a020
 8048406:	68 28 00 00 00       	push   $0x28
 804840b:	e9 90 ff ff ff       	jmp    80483a0 <.plt>

Disassembly of section .plt.got:

08048410 <__gmon_start__@plt>:
 8048410:	ff 25 fc 9f 04 08    	jmp    *0x8049ffc
 8048416:	66 90                	xchg   %ax,%ax

Disassembly of section .text:

08048420 <_start>:
 8048420:	31 ed                	xor    %ebp,%ebp
 8048422:	5e                   	pop    %esi
 8048423:	89 e1                	mov    %esp,%ecx
 8048425:	83 e4 f0             	and    $0xfffffff0,%esp
 8048428:	50                   	push   %eax
 8048429:	54                   	push   %esp
 804842a:	52                   	push   %edx
 804842b:	68 30 86 04 08       	push   $0x8048630
 8048430:	68 d0 85 04 08       	push   $0x80485d0
 8048435:	51                   	push   %ecx
 8048436:	56                   	push   %esi
 8048437:	68 1b 85 04 08       	push   $0x804851b
 804843c:	e8 af ff ff ff       	call   80483f0 <__libc_start_main@plt>
 8048441:	f4                   	hlt
 8048442:	66 90                	xchg   %ax,%ax
 8048444:	66 90                	xchg   %ax,%ax
 8048446:	66 90                	xchg   %ax,%ax
 8048448:	66 90                	xchg   %ax,%ax
 804844a:	66 90                	xchg   %ax,%ax
 804844c:	66 90                	xchg   %ax,%ax
 804844e:	66 90                	xchg   %ax,%ax

08048450 <__x86.get_pc_thunk.bx>:
 8048450:	8b 1c 24             	mov    (%esp),%ebx
 8048453:	c3                   	ret
 8048454:	66 90                	xchg   %ax,%ax
 8048456:	66 90                	xchg   %ax,%ax
 8048458:	66 90                	xchg   %ax,%ax
 804845a:	66 90                	xchg   %ax,%ax
 804845c:	66 90                	xchg   %ax,%ax
 804845e:	66 90                	xchg   %ax,%ax

08048460 <deregister_tm_clones>:
 8048460:	b8 2f a0 04 08       	mov    $0x804a02f,%eax
 8048465:	2d 2c a0 04 08       	sub    $0x804a02c,%eax
 804846a:	83 f8 06             	cmp    $0x6,%eax
 804846d:	76 1a                	jbe    8048489 <deregister_tm_clones+0x29>
 804846f:	b8 00 00 00 00       	mov    $0x0,%eax
 8048474:	85 c0                	test   %eax,%eax
 8048476:	74 11                	je     8048489 <deregister_tm_clones+0x29>
 8048478:	55                   	push   %ebp
 8048479:	89 e5                	mov    %esp,%ebp
 804847b:	83 ec 14             	sub    $0x14,%esp
 804847e:	68 2c a0 04 08       	push   $0x804a02c
 8048483:	ff d0                	call   *%eax
 8048485:	83 c4 10             	add    $0x10,%esp
 8048488:	c9                   	leave
 8048489:	f3 c3                	repz ret
 804848b:	90                   	nop
 804848c:	8d 74 26 00          	lea    0x0(%esi,%eiz,1),%esi

08048490 <register_tm_clones>:
 8048490:	b8 2c a0 04 08       	mov    $0x804a02c,%eax
 8048495:	2d 2c a0 04 08       	sub    $0x804a02c,%eax
 804849a:	c1 f8 02             	sar    $0x2,%eax
 804849d:	89 c2                	mov    %eax,%edx
 804849f:	c1 ea 1f             	shr    $0x1f,%edx
 80484a2:	01 d0                	add    %edx,%eax
 80484a4:	d1 f8                	sar    %eax
 80484a6:	74 1b                	je     80484c3 <register_tm_clones+0x33>
 80484a8:	ba 00 00 00 00       	mov    $0x0,%edx
 80484ad:	85 d2                	test   %edx,%edx
 80484af:	74 12                	je     80484c3 <register_tm_clones+0x33>
 80484b1:	55                   	push   %ebp
 80484b2:	89 e5                	mov    %esp,%ebp
 80484b4:	83 ec 10             	sub    $0x10,%esp
 80484b7:	50                   	push   %eax
 80484b8:	68 2c a0 04 08       	push   $0x804a02c
 80484bd:	ff d2                	call   *%edx
 80484bf:	83 c4 10             	add    $0x10,%esp
 80484c2:	c9                   	leave
 80484c3:	f3 c3                	repz ret
 80484c5:	8d 74 26 00          	lea    0x0(%esi,%eiz,1),%esi
 80484c9:	8d bc 27 00 00 00 00 	lea    0x0(%edi,%eiz,1),%edi

080484d0 <__do_global_dtors_aux>:
 80484d0:	80 3d 48 a0 04 08 00 	cmpb   $0x0,0x804a048
 80484d7:	75 13                	jne    80484ec <__do_global_dtors_aux+0x1c>
 80484d9:	55                   	push   %ebp
 80484da:	89 e5                	mov    %esp,%ebp
 80484dc:	83 ec 08             	sub    $0x8,%esp
 80484df:	e8 7c ff ff ff       	call   8048460 <deregister_tm_clones>
 80484e4:	c6 05 48 a0 04 08 01 	movb   $0x1,0x804a048
 80484eb:	c9                   	leave
 80484ec:	f3 c3                	repz ret
 80484ee:	66 90                	xchg   %ax,%ax

080484f0 <frame_dummy>:
 80484f0:	b8 10 9f 04 08       	mov    $0x8049f10,%eax
 80484f5:	8b 10                	mov    (%eax),%edx
 80484f7:	85 d2                	test   %edx,%edx
 80484f9:	75 05                	jne    8048500 <frame_dummy+0x10>
 80484fb:	eb 93                	jmp    8048490 <register_tm_clones>
 80484fd:	8d 76 00             	lea    0x0(%esi),%esi
 8048500:	ba 00 00 00 00       	mov    $0x0,%edx
 8048505:	85 d2                	test   %edx,%edx
 8048507:	74 f2                	je     80484fb <frame_dummy+0xb>
 8048509:	55                   	push   %ebp
 804850a:	89 e5                	mov    %esp,%ebp
 804850c:	83 ec 14             	sub    $0x14,%esp
 804850f:	50                   	push   %eax
 8048510:	ff d2                	call   *%edx
 8048512:	83 c4 10             	add    $0x10,%esp
 8048515:	c9                   	leave
 8048516:	e9 75 ff ff ff       	jmp    8048490 <register_tm_clones>

0804851b <main>:
 804851b:	55                   	push   %ebp
 804851c:	89 e5                	mov    %esp,%ebp
 804851e:	81 ec 2c 01 00 00    	sub    $0x12c,%esp
 8048524:	a1 44 a0 04 08       	mov    0x804a044,%eax
 8048529:	6a 00                	push   $0x0
 804852b:	6a 02                	push   $0x2
 804852d:	6a 00                	push   $0x0
 804852f:	50                   	push   %eax
 8048530:	e8 cb fe ff ff       	call   8048400 <setvbuf@plt>
 8048535:	83 c4 10             	add    $0x10,%esp
 8048538:	a1 40 a0 04 08       	mov    0x804a040,%eax
 804853d:	6a 00                	push   $0x0
 804853f:	6a 02                	push   $0x2
 8048541:	6a 00                	push   $0x0
 8048543:	50                   	push   %eax
 8048544:	e8 b7 fe ff ff       	call   8048400 <setvbuf@plt>
 8048549:	83 c4 10             	add    $0x10,%esp
 804854c:	68 50 86 04 08       	push   $0x8048650
 8048551:	e8 7a fe ff ff       	call   80483d0 <puts@plt>
 8048556:	83 c4 04             	add    $0x4,%esp
 8048559:	68 6c 86 04 08       	push   $0x804866c
 804855e:	e8 6d fe ff ff       	call   80483d0 <puts@plt>
 8048563:	83 c4 04             	add    $0x4,%esp
 8048566:	68 a0 86 04 08       	push   $0x80486a0
 804856b:	e8 60 fe ff ff       	call   80483d0 <puts@plt>
 8048570:	83 c4 04             	add    $0x4,%esp
 8048573:	68 dc 86 04 08       	push   $0x80486dc
 8048578:	e8 53 fe ff ff       	call   80483d0 <puts@plt>
 804857d:	83 c4 04             	add    $0x4,%esp
 8048580:	8d 85 d4 fe ff ff    	lea    -0x12c(%ebp),%eax
 8048586:	50                   	push   %eax
 8048587:	e8 34 fe ff ff       	call   80483c0 <gets@plt>
 804858c:	83 c4 04             	add    $0x4,%esp
 804858f:	8d 85 d4 fe ff ff    	lea    -0x12c(%ebp),%eax
 8048595:	50                   	push   %eax
 8048596:	e8 35 fe ff ff       	call   80483d0 <puts@plt>
 804859b:	83 c4 04             	add    $0x4,%esp
 804859e:	b8 00 00 00 00       	mov    $0x0,%eax
 80485a3:	c9                   	leave
 80485a4:	c3                   	ret

080485a5 <oneshot>:
 80485a5:	55                   	push   %ebp
 80485a6:	89 e5                	mov    %esp,%ebp
 80485a8:	68 f0 86 04 08       	push   $0x80486f0
 80485ad:	e8 2e fe ff ff       	call   80483e0 <system@plt>
 80485b2:	83 c4 04             	add    $0x4,%esp
 80485b5:	68 f9 86 04 08       	push   $0x80486f9
 80485ba:	e8 f1 fd ff ff       	call   80483b0 <printf@plt>
 80485bf:	83 c4 04             	add    $0x4,%esp
 80485c2:	90                   	nop
 80485c3:	c9                   	leave
 80485c4:	c3                   	ret
 80485c5:	66 90                	xchg   %ax,%ax
 80485c7:	66 90                	xchg   %ax,%ax
 80485c9:	66 90                	xchg   %ax,%ax
 80485cb:	66 90                	xchg   %ax,%ax
 80485cd:	66 90                	xchg   %ax,%ax
 80485cf:	90                   	nop

080485d0 <__libc_csu_init>:
 80485d0:	55                   	push   %ebp
 80485d1:	57                   	push   %edi
 80485d2:	56                   	push   %esi
 80485d3:	53                   	push   %ebx
 80485d4:	e8 77 fe ff ff       	call   8048450 <__x86.get_pc_thunk.bx>
 80485d9:	81 c3 27 1a 00 00    	add    $0x1a27,%ebx
 80485df:	83 ec 0c             	sub    $0xc,%esp
 80485e2:	8b 6c 24 20          	mov    0x20(%esp),%ebp
 80485e6:	8d b3 0c ff ff ff    	lea    -0xf4(%ebx),%esi
 80485ec:	e8 87 fd ff ff       	call   8048378 <_init>
 80485f1:	8d 83 08 ff ff ff    	lea    -0xf8(%ebx),%eax
 80485f7:	29 c6                	sub    %eax,%esi
 80485f9:	c1 fe 02             	sar    $0x2,%esi
 80485fc:	85 f6                	test   %esi,%esi
 80485fe:	74 25                	je     8048625 <__libc_csu_init+0x55>
 8048600:	31 ff                	xor    %edi,%edi
 8048602:	8d b6 00 00 00 00    	lea    0x0(%esi),%esi
 8048608:	83 ec 04             	sub    $0x4,%esp
 804860b:	ff 74 24 2c          	pushl  0x2c(%esp)
 804860f:	ff 74 24 2c          	pushl  0x2c(%esp)
 8048613:	55                   	push   %ebp
 8048614:	ff 94 bb 08 ff ff ff 	call   *-0xf8(%ebx,%edi,4)
 804861b:	83 c7 01             	add    $0x1,%edi
 804861e:	83 c4 10             	add    $0x10,%esp
 8048621:	39 f7                	cmp    %esi,%edi
 8048623:	75 e3                	jne    8048608 <__libc_csu_init+0x38>
 8048625:	83 c4 0c             	add    $0xc,%esp
 8048628:	5b                   	pop    %ebx
 8048629:	5e                   	pop    %esi
 804862a:	5f                   	pop    %edi
 804862b:	5d                   	pop    %ebp
 804862c:	c3                   	ret
 804862d:	8d 76 00             	lea    0x0(%esi),%esi

08048630 <__libc_csu_fini>:
 8048630:	f3 c3                	repz ret

Disassembly of section .fini:

08048634 <_fini>:
 8048634:	53                   	push   %ebx
 8048635:	83 ec 08             	sub    $0x8,%esp
 8048638:	e8 13 fe ff ff       	call   8048450 <__x86.get_pc_thunk.bx>
 804863d:	81 c3 c3 19 00 00    	add    $0x19c3,%ebx
 8048643:	83 c4 08             	add    $0x8,%esp
 8048646:	5b                   	pop    %ebx
 8048647:	c3                   	ret
