
ch46:     file format elf32-littlearm


Disassembly of section .init:

000103f0 <_init>:
   103f0:	e92d4008 	push	{r3, lr}
   103f4:	eb000032 	bl	104c4 <call_weak_fn>
   103f8:	e8bd8008 	pop	{r3, pc}

Disassembly of section .plt:

000103fc <.plt>:
   103fc:	e52de004 	push	{lr}		; (str lr, [sp, #-4]!)
   10400:	e59fe004 	ldr	lr, [pc, #4]	; 1040c <.plt+0x10>
   10404:	e08fe00e 	add	lr, pc, lr
   10408:	e5bef008 	ldr	pc, [lr, #8]!
   1040c:	00010bb8 			; <UNDEFINED> instruction: 0x00010bb8

00010410 <printf@plt>:
   10410:	e28fc600 	add	ip, pc, #0, 12
   10414:	e28cca10 	add	ip, ip, #16, 20	; 0x10000
   10418:	e5bcfbb8 	ldr	pc, [ip, #3000]!	; 0xbb8

0001041c <geteuid@plt>:
   1041c:	e28fc600 	add	ip, pc, #0, 12
   10420:	e28cca10 	add	ip, ip, #16, 20	; 0x10000
   10424:	e5bcfbb0 	ldr	pc, [ip, #2992]!	; 0xbb0

00010428 <puts@plt>:
   10428:	e28fc600 	add	ip, pc, #0, 12
   1042c:	e28cca10 	add	ip, ip, #16, 20	; 0x10000
   10430:	e5bcfba8 	ldr	pc, [ip, #2984]!	; 0xba8

00010434 <__libc_start_main@plt>:
   10434:	e28fc600 	add	ip, pc, #0, 12
   10438:	e28cca10 	add	ip, ip, #16, 20	; 0x10000
   1043c:	e5bcfba0 	ldr	pc, [ip, #2976]!	; 0xba0

00010440 <system@plt>:
   10440:	e28fc600 	add	ip, pc, #0, 12
   10444:	e28cca10 	add	ip, ip, #16, 20	; 0x10000
   10448:	e5bcfb98 	ldr	pc, [ip, #2968]!	; 0xb98

0001044c <__gmon_start__@plt>:
   1044c:	e28fc600 	add	ip, pc, #0, 12
   10450:	e28cca10 	add	ip, ip, #16, 20	; 0x10000
   10454:	e5bcfb90 	ldr	pc, [ip, #2960]!	; 0xb90

00010458 <strlen@plt>:
   10458:	e28fc600 	add	ip, pc, #0, 12
   1045c:	e28cca10 	add	ip, ip, #16, 20	; 0x10000
   10460:	e5bcfb88 	ldr	pc, [ip, #2952]!	; 0xb88

00010464 <setreuid@plt>:
   10464:	e28fc600 	add	ip, pc, #0, 12
   10468:	e28cca10 	add	ip, ip, #16, 20	; 0x10000
   1046c:	e5bcfb80 	ldr	pc, [ip, #2944]!	; 0xb80

00010470 <putchar@plt>:
   10470:	e28fc600 	add	ip, pc, #0, 12
   10474:	e28cca10 	add	ip, ip, #16, 20	; 0x10000
   10478:	e5bcfb78 	ldr	pc, [ip, #2936]!	; 0xb78

0001047c <__isoc99_scanf@plt>:
   1047c:	e28fc600 	add	ip, pc, #0, 12
   10480:	e28cca10 	add	ip, ip, #16, 20	; 0x10000
   10484:	e5bcfb70 	ldr	pc, [ip, #2928]!	; 0xb70

00010488 <abort@plt>:
   10488:	e28fc600 	add	ip, pc, #0, 12
   1048c:	e28cca10 	add	ip, ip, #16, 20	; 0x10000
   10490:	e5bcfb68 	ldr	pc, [ip, #2920]!	; 0xb68

Disassembly of section .text:

00010494 <_start>:
   10494:	f04f 0b00 	mov.w	fp, #0
   10498:	f04f 0e00 	mov.w	lr, #0
   1049c:	bc02      	pop	{r1}
   1049e:	466a      	mov	r2, sp
   104a0:	b404      	push	{r2}
   104a2:	b401      	push	{r0}
   104a4:	f8df c010 	ldr.w	ip, [pc, #16]	; 104b8 <_start+0x24>
   104a8:	f84d cd04 	str.w	ip, [sp, #-4]!
   104ac:	4803      	ldr	r0, [pc, #12]	; (104bc <_start+0x28>)
   104ae:	4b04      	ldr	r3, [pc, #16]	; (104c0 <_start+0x2c>)
   104b0:	f7ff efc0 	blx	10434 <__libc_start_main@plt>
   104b4:	f7ff efe8 	blx	10488 <abort@plt>
   104b8:	000106c5 	andeq	r0, r1, r5, asr #13
   104bc:	00010638 	andeq	r0, r1, r8, lsr r6
   104c0:	00010689 	andeq	r0, r1, r9, lsl #13

000104c4 <call_weak_fn>:
   104c4:	e59f3014 	ldr	r3, [pc, #20]	; 104e0 <call_weak_fn+0x1c>
   104c8:	e59f2014 	ldr	r2, [pc, #20]	; 104e4 <call_weak_fn+0x20>
   104cc:	e08f3003 	add	r3, pc, r3
   104d0:	e7932002 	ldr	r2, [r3, r2]
   104d4:	e3520000 	cmp	r2, #0
   104d8:	012fff1e 	bxeq	lr
   104dc:	eaffffda 	b	1044c <__gmon_start__@plt>
   104e0:	00010af0 	strdeq	r0, [r1], -r0	; <UNPREDICTABLE>
   104e4:	00000038 	andeq	r0, r0, r8, lsr r0

000104e8 <deregister_tm_clones>:
   104e8:	4b07      	ldr	r3, [pc, #28]	; (10508 <deregister_tm_clones+0x20>)
   104ea:	f241 0008 	movw	r0, #4104	; 0x1008
   104ee:	f2c0 0002 	movt	r0, #2
   104f2:	1a1b      	subs	r3, r3, r0
   104f4:	2b06      	cmp	r3, #6
   104f6:	d905      	bls.n	10504 <deregister_tm_clones+0x1c>
   104f8:	f240 0300 	movw	r3, #0
   104fc:	f2c0 0300 	movt	r3, #0
   10500:	b103      	cbz	r3, 10504 <deregister_tm_clones+0x1c>
   10502:	4718      	bx	r3
   10504:	4770      	bx	lr
   10506:	bf00      	nop
   10508:	0002100b 	andeq	r1, r2, fp

0001050c <register_tm_clones>:
   1050c:	f241 0308 	movw	r3, #4104	; 0x1008
   10510:	f241 0008 	movw	r0, #4104	; 0x1008
   10514:	f2c0 0302 	movt	r3, #2
   10518:	f2c0 0002 	movt	r0, #2
   1051c:	1a19      	subs	r1, r3, r0
   1051e:	1089      	asrs	r1, r1, #2
   10520:	eb01 71d1 	add.w	r1, r1, r1, lsr #31
   10524:	1049      	asrs	r1, r1, #1
   10526:	d005      	beq.n	10534 <register_tm_clones+0x28>
   10528:	f240 0300 	movw	r3, #0
   1052c:	f2c0 0300 	movt	r3, #0
   10530:	b103      	cbz	r3, 10534 <register_tm_clones+0x28>
   10532:	4718      	bx	r3
   10534:	4770      	bx	lr
   10536:	bf00      	nop

00010538 <__do_global_dtors_aux>:
   10538:	b510      	push	{r4, lr}
   1053a:	f241 0408 	movw	r4, #4104	; 0x1008
   1053e:	f2c0 0402 	movt	r4, #2
   10542:	7823      	ldrb	r3, [r4, #0]
   10544:	b91b      	cbnz	r3, 1054e <__do_global_dtors_aux+0x16>
   10546:	f7ff ffcf 	bl	104e8 <deregister_tm_clones>
   1054a:	2301      	movs	r3, #1
   1054c:	7023      	strb	r3, [r4, #0]
   1054e:	bd10      	pop	{r4, pc}

00010550 <frame_dummy>:
   10550:	b508      	push	{r3, lr}
   10552:	f640 60c8 	movw	r0, #3784	; 0xec8
   10556:	f2c0 0002 	movt	r0, #2
   1055a:	6803      	ldr	r3, [r0, #0]
   1055c:	b913      	cbnz	r3, 10564 <frame_dummy+0x14>
   1055e:	e8bd 4008 	ldmia.w	sp!, {r3, lr}
   10562:	e7d3      	b.n	1050c <register_tm_clones>
   10564:	f240 0300 	movw	r3, #0
   10568:	f2c0 0300 	movt	r3, #0
   1056c:	2b00      	cmp	r3, #0
   1056e:	d0f6      	beq.n	1055e <frame_dummy+0xe>
   10570:	4798      	blx	r3
   10572:	e7f4      	b.n	1055e <frame_dummy+0xe>

00010574 <exec>:
   10574:	e92d4810 	push	{r4, fp, lr}
   10578:	e28db008 	add	fp, sp, #8
   1057c:	e24dd00c 	sub	sp, sp, #12
   10580:	e50b0010 	str	r0, [fp, #-16]
   10584:	ebffffa4 	bl	1041c <geteuid@plt>
   10588:	e1a04000 	mov	r4, r0
   1058c:	ebffffa2 	bl	1041c <geteuid@plt>
   10590:	e1a03000 	mov	r3, r0
   10594:	e1a01003 	mov	r1, r3
   10598:	e1a00004 	mov	r0, r4
   1059c:	ebffffb0 	bl	10464 <setreuid@plt>
   105a0:	e51b0010 	ldr	r0, [fp, #-16]
   105a4:	ebffffa5 	bl	10440 <system@plt>
   105a8:	e320f000 	nop	{0}
   105ac:	e24bd008 	sub	sp, fp, #8
   105b0:	e8bd8810 	pop	{r4, fp, pc}

000105b4 <dump>:
   105b4:	e92d4800 	push	{fp, lr}
   105b8:	e28db004 	add	fp, sp, #4
   105bc:	e24dd010 	sub	sp, sp, #16
   105c0:	e50b0010 	str	r0, [fp, #-16]
   105c4:	e30006d4 	movw	r0, #1748	; 0x6d4
   105c8:	e3400001 	movt	r0, #1
   105cc:	ebffff95 	bl	10428 <puts@plt>
   105d0:	e3a03000 	mov	r3, #0
   105d4:	e50b3008 	str	r3, [fp, #-8]
   105d8:	ea00000a 	b	10608 <dump+0x54>
   105dc:	e51b3008 	ldr	r3, [fp, #-8]
   105e0:	e51b2010 	ldr	r2, [fp, #-16]
   105e4:	e0823003 	add	r3, r2, r3
   105e8:	e5d33000 	ldrb	r3, [r3]
   105ec:	e1a01003 	mov	r1, r3
   105f0:	e30006e4 	movw	r0, #1764	; 0x6e4
   105f4:	e3400001 	movt	r0, #1
   105f8:	ebffff84 	bl	10410 <printf@plt>
   105fc:	e51b3008 	ldr	r3, [fp, #-8]
   10600:	e2833001 	add	r3, r3, #1
   10604:	e50b3008 	str	r3, [fp, #-8]
   10608:	e51b0010 	ldr	r0, [fp, #-16]
   1060c:	ebffff91 	bl	10458 <strlen@plt>
   10610:	e1a02000 	mov	r2, r0
   10614:	e51b3008 	ldr	r3, [fp, #-8]
   10618:	e1520003 	cmp	r2, r3
   1061c:	8affffee 	bhi	105dc <dump+0x28>
   10620:	e3a0000a 	mov	r0, #10
   10624:	ebffff91 	bl	10470 <putchar@plt>
   10628:	e51b3008 	ldr	r3, [fp, #-8]
   1062c:	e1a00003 	mov	r0, r3
   10630:	e24bd004 	sub	sp, fp, #4
   10634:	e8bd8800 	pop	{fp, pc}

00010638 <main>:
   10638:	e92d4800 	push	{fp, lr}
   1063c:	e28db004 	add	fp, sp, #4
   10640:	e24dd048 	sub	sp, sp, #72	; 0x48
   10644:	e50b0048 	str	r0, [fp, #-72]	; 0xffffffb8
   10648:	e50b104c 	str	r1, [fp, #-76]	; 0xffffffb4
   1064c:	e30006ec 	movw	r0, #1772	; 0x6ec
   10650:	e3400001 	movt	r0, #1
   10654:	ebffff73 	bl	10428 <puts@plt>
   10658:	e24b3044 	sub	r3, fp, #68	; 0x44
   1065c:	e1a01003 	mov	r1, r3
   10660:	e3000704 	movw	r0, #1796	; 0x704
   10664:	e3400001 	movt	r0, #1
   10668:	ebffff83 	bl	1047c <__isoc99_scanf@plt>
   1066c:	e24b3044 	sub	r3, fp, #68	; 0x44
   10670:	e1a00003 	mov	r0, r3
   10674:	ebffffce 	bl	105b4 <dump>
   10678:	e1a03000 	mov	r3, r0
   1067c:	e1a00003 	mov	r0, r3
   10680:	e24bd004 	sub	sp, fp, #4
   10684:	e8bd8800 	pop	{fp, pc}

00010688 <__libc_csu_init>:
   10688:	e92d 43f8 	stmdb	sp!, {r3, r4, r5, r6, r7, r8, r9, lr}
   1068c:	4607      	mov	r7, r0
   1068e:	4e0b      	ldr	r6, [pc, #44]	; (106bc <__libc_csu_init+0x34>)
   10690:	4688      	mov	r8, r1
   10692:	4d0b      	ldr	r5, [pc, #44]	; (106c0 <__libc_csu_init+0x38>)
   10694:	4691      	mov	r9, r2
   10696:	447e      	add	r6, pc
   10698:	f7ff eeaa 	blx	103f0 <_init>
   1069c:	447d      	add	r5, pc
   1069e:	1b76      	subs	r6, r6, r5
   106a0:	10b6      	asrs	r6, r6, #2
   106a2:	d009      	beq.n	106b8 <__libc_csu_init+0x30>
   106a4:	2400      	movs	r4, #0
   106a6:	3401      	adds	r4, #1
   106a8:	f855 3b04 	ldr.w	r3, [r5], #4
   106ac:	464a      	mov	r2, r9
   106ae:	4641      	mov	r1, r8
   106b0:	4638      	mov	r0, r7
   106b2:	4798      	blx	r3
   106b4:	42b4      	cmp	r4, r6
   106b6:	d1f6      	bne.n	106a6 <__libc_csu_init+0x1e>
   106b8:	e8bd 83f8 	ldmia.w	sp!, {r3, r4, r5, r6, r7, r8, r9, pc}
   106bc:	0001082a 	andeq	r0, r1, sl, lsr #16
   106c0:	00010820 	andeq	r0, r1, r0, lsr #16

000106c4 <__libc_csu_fini>:
   106c4:	4770      	bx	lr
   106c6:	bf00      	nop

Disassembly of section .fini:

000106c8 <_fini>:
   106c8:	e92d4008 	push	{r3, lr}
   106cc:	e8bd8008 	pop	{r3, pc}
