
babypwn:     file format elf64-x86-64


Disassembly of section .init:

0000000000400438 <_init>:
  400438:	48 83 ec 08          	sub    $0x8,%rsp
  40043c:	48 8b 05 b5 0b 20 00 	mov    0x200bb5(%rip),%rax        # 600ff8 <__gmon_start__>
  400443:	48 85 c0             	test   %rax,%rax
  400446:	74 05                	je     40044d <_init+0x15>
  400448:	e8 63 00 00 00       	callq  4004b0 <__gmon_start__@plt>
  40044d:	48 83 c4 08          	add    $0x8,%rsp
  400451:	c3                   	retq

Disassembly of section .plt:

0000000000400460 <.plt>:
  400460:	ff 35 a2 0b 20 00    	pushq  0x200ba2(%rip)        # 601008 <_GLOBAL_OFFSET_TABLE_+0x8>
  400466:	ff 25 a4 0b 20 00    	jmpq   *0x200ba4(%rip)        # 601010 <_GLOBAL_OFFSET_TABLE_+0x10>
  40046c:	0f 1f 40 00          	nopl   0x0(%rax)

0000000000400470 <system@plt>:
  400470:	ff 25 a2 0b 20 00    	jmpq   *0x200ba2(%rip)        # 601018 <system@GLIBC_2.2.5>
  400476:	68 00 00 00 00       	pushq  $0x0
  40047b:	e9 e0 ff ff ff       	jmpq   400460 <.plt>

0000000000400480 <printf@plt>:
  400480:	ff 25 9a 0b 20 00    	jmpq   *0x200b9a(%rip)        # 601020 <printf@GLIBC_2.2.5>
  400486:	68 01 00 00 00       	pushq  $0x1
  40048b:	e9 d0 ff ff ff       	jmpq   400460 <.plt>

0000000000400490 <__libc_start_main@plt>:
  400490:	ff 25 92 0b 20 00    	jmpq   *0x200b92(%rip)        # 601028 <__libc_start_main@GLIBC_2.2.5>
  400496:	68 02 00 00 00       	pushq  $0x2
  40049b:	e9 c0 ff ff ff       	jmpq   400460 <.plt>

00000000004004a0 <gets@plt>:
  4004a0:	ff 25 8a 0b 20 00    	jmpq   *0x200b8a(%rip)        # 601030 <gets@GLIBC_2.2.5>
  4004a6:	68 03 00 00 00       	pushq  $0x3
  4004ab:	e9 b0 ff ff ff       	jmpq   400460 <.plt>

Disassembly of section .plt.got:

00000000004004b0 <__gmon_start__@plt>:
  4004b0:	ff 25 42 0b 20 00    	jmpq   *0x200b42(%rip)        # 600ff8 <__gmon_start__>
  4004b6:	66 90                	xchg   %ax,%ax

Disassembly of section .text:

00000000004004c0 <_start>:
  4004c0:	31 ed                	xor    %ebp,%ebp
  4004c2:	49 89 d1             	mov    %rdx,%r9
  4004c5:	5e                   	pop    %rsi
  4004c6:	48 89 e2             	mov    %rsp,%rdx
  4004c9:	48 83 e4 f0          	and    $0xfffffffffffffff0,%rsp
  4004cd:	50                   	push   %rax
  4004ce:	54                   	push   %rsp
  4004cf:	49 c7 c0 d0 06 40 00 	mov    $0x4006d0,%r8
  4004d6:	48 c7 c1 60 06 40 00 	mov    $0x400660,%rcx
  4004dd:	48 c7 c7 b6 05 40 00 	mov    $0x4005b6,%rdi
  4004e4:	e8 a7 ff ff ff       	callq  400490 <__libc_start_main@plt>
  4004e9:	f4                   	hlt
  4004ea:	66 0f 1f 44 00 00    	nopw   0x0(%rax,%rax,1)

00000000004004f0 <deregister_tm_clones>:
  4004f0:	b8 4f 10 60 00       	mov    $0x60104f,%eax
  4004f5:	55                   	push   %rbp
  4004f6:	48 2d 48 10 60 00    	sub    $0x601048,%rax
  4004fc:	48 83 f8 0e          	cmp    $0xe,%rax
  400500:	48 89 e5             	mov    %rsp,%rbp
  400503:	76 1b                	jbe    400520 <deregister_tm_clones+0x30>
  400505:	b8 00 00 00 00       	mov    $0x0,%eax
  40050a:	48 85 c0             	test   %rax,%rax
  40050d:	74 11                	je     400520 <deregister_tm_clones+0x30>
  40050f:	5d                   	pop    %rbp
  400510:	bf 48 10 60 00       	mov    $0x601048,%edi
  400515:	ff e0                	jmpq   *%rax
  400517:	66 0f 1f 84 00 00 00 	nopw   0x0(%rax,%rax,1)
  40051e:	00 00
  400520:	5d                   	pop    %rbp
  400521:	c3                   	retq
  400522:	0f 1f 40 00          	nopl   0x0(%rax)
  400526:	66 2e 0f 1f 84 00 00 	nopw   %cs:0x0(%rax,%rax,1)
  40052d:	00 00 00

0000000000400530 <register_tm_clones>:
  400530:	be 48 10 60 00       	mov    $0x601048,%esi
  400535:	55                   	push   %rbp
  400536:	48 81 ee 48 10 60 00 	sub    $0x601048,%rsi
  40053d:	48 c1 fe 03          	sar    $0x3,%rsi
  400541:	48 89 e5             	mov    %rsp,%rbp
  400544:	48 89 f0             	mov    %rsi,%rax
  400547:	48 c1 e8 3f          	shr    $0x3f,%rax
  40054b:	48 01 c6             	add    %rax,%rsi
  40054e:	48 d1 fe             	sar    %rsi
  400551:	74 15                	je     400568 <register_tm_clones+0x38>
  400553:	b8 00 00 00 00       	mov    $0x0,%eax
  400558:	48 85 c0             	test   %rax,%rax
  40055b:	74 0b                	je     400568 <register_tm_clones+0x38>
  40055d:	5d                   	pop    %rbp
  40055e:	bf 48 10 60 00       	mov    $0x601048,%edi
  400563:	ff e0                	jmpq   *%rax
  400565:	0f 1f 00             	nopl   (%rax)
  400568:	5d                   	pop    %rbp
  400569:	c3                   	retq
  40056a:	66 0f 1f 44 00 00    	nopw   0x0(%rax,%rax,1)

0000000000400570 <__do_global_dtors_aux>:
  400570:	80 3d d1 0a 20 00 00 	cmpb   $0x0,0x200ad1(%rip)        # 601048 <__TMC_END__>
  400577:	75 11                	jne    40058a <__do_global_dtors_aux+0x1a>
  400579:	55                   	push   %rbp
  40057a:	48 89 e5             	mov    %rsp,%rbp
  40057d:	e8 6e ff ff ff       	callq  4004f0 <deregister_tm_clones>
  400582:	5d                   	pop    %rbp
  400583:	c6 05 be 0a 20 00 01 	movb   $0x1,0x200abe(%rip)        # 601048 <__TMC_END__>
  40058a:	f3 c3                	repz retq
  40058c:	0f 1f 40 00          	nopl   0x0(%rax)

0000000000400590 <frame_dummy>:
  400590:	bf 20 0e 60 00       	mov    $0x600e20,%edi
  400595:	48 83 3f 00          	cmpq   $0x0,(%rdi)
  400599:	75 05                	jne    4005a0 <frame_dummy+0x10>
  40059b:	eb 93                	jmp    400530 <register_tm_clones>
  40059d:	0f 1f 00             	nopl   (%rax)
  4005a0:	b8 00 00 00 00       	mov    $0x0,%eax
  4005a5:	48 85 c0             	test   %rax,%rax
  4005a8:	74 f1                	je     40059b <frame_dummy+0xb>
  4005aa:	55                   	push   %rbp
  4005ab:	48 89 e5             	mov    %rsp,%rbp
  4005ae:	ff d0                	callq  *%rax
  4005b0:	5d                   	pop    %rbp
  4005b1:	e9 7a ff ff ff       	jmpq   400530 <register_tm_clones>

00000000004005b6 <main>:
  4005b6:	55                   	push   %rbp
  4005b7:	48 89 e5             	mov    %rsp,%rbp
  4005ba:	48 81 ec 00 04 00 00 	sub    $0x400,%rsp
  4005c1:	bf e8 06 40 00       	mov    $0x4006e8,%edi
  4005c6:	b8 00 00 00 00       	mov    $0x0,%eax
  4005cb:	e8 b0 fe ff ff       	callq  400480 <printf@plt>
  4005d0:	48 8d 85 00 fc ff ff 	lea    -0x400(%rbp),%rax
  4005d7:	48 89 c7             	mov    %rax,%rdi
  4005da:	b8 00 00 00 00       	mov    $0x0,%eax
  4005df:	e8 bc fe ff ff       	callq  4004a0 <gets@plt>
  4005e4:	48 8d 85 00 fc ff ff 	lea    -0x400(%rbp),%rax
  4005eb:	48 89 c6             	mov    %rax,%rsi
  4005ee:	bf 05 07 40 00       	mov    $0x400705,%edi
  4005f3:	b8 00 00 00 00       	mov    $0x0,%eax
  4005f8:	e8 83 fe ff ff       	callq  400480 <printf@plt>
  4005fd:	b8 00 00 00 00       	mov    $0x0,%eax
  400602:	c9                   	leaveq
  400603:	c3                   	retq

0000000000400604 <flag1>:
  400604:	55                   	push   %rbp
  400605:	48 89 e5             	mov    %rsp,%rbp
  400608:	48 83 ec 10          	sub    $0x10,%rsp
  40060c:	c7 45 fc 00 00 00 00 	movl   $0x0,-0x4(%rbp)
  400613:	eb 18                	jmp    40062d <flag1+0x29>
  400615:	8b 45 fc             	mov    -0x4(%rbp),%eax
  400618:	89 c6                	mov    %eax,%esi
  40061a:	bf 10 07 40 00       	mov    $0x400710,%edi
  40061f:	b8 00 00 00 00       	mov    $0x0,%eax
  400624:	e8 57 fe ff ff       	callq  400480 <printf@plt>
  400629:	83 45 fc 01          	addl   $0x1,-0x4(%rbp)
  40062d:	83 7d fc 0a          	cmpl   $0xa,-0x4(%rbp)
  400631:	7e e2                	jle    400615 <flag1+0x11>
  400633:	90                   	nop
  400634:	c9                   	leaveq
  400635:	c3                   	retq

0000000000400636 <flag2>:
  400636:	55                   	push   %rbp
  400637:	48 89 e5             	mov    %rsp,%rbp
  40063a:	bf 30 07 40 00       	mov    $0x400730,%edi
  40063f:	b8 00 00 00 00       	mov    $0x0,%eax
  400644:	e8 37 fe ff ff       	callq  400480 <printf@plt>
  400649:	bf 4c 07 40 00       	mov    $0x40074c,%edi
  40064e:	b8 00 00 00 00       	mov    $0x0,%eax
  400653:	e8 18 fe ff ff       	callq  400470 <system@plt>
  400658:	90                   	nop
  400659:	5d                   	pop    %rbp
  40065a:	c3                   	retq
  40065b:	0f 1f 44 00 00       	nopl   0x0(%rax,%rax,1)

0000000000400660 <__libc_csu_init>:
  400660:	41 57                	push   %r15
  400662:	41 56                	push   %r14
  400664:	41 89 ff             	mov    %edi,%r15d
  400667:	41 55                	push   %r13
  400669:	41 54                	push   %r12
  40066b:	4c 8d 25 9e 07 20 00 	lea    0x20079e(%rip),%r12        # 600e10 <__frame_dummy_init_array_entry>
  400672:	55                   	push   %rbp
  400673:	48 8d 2d 9e 07 20 00 	lea    0x20079e(%rip),%rbp        # 600e18 <__init_array_end>
  40067a:	53                   	push   %rbx
  40067b:	49 89 f6             	mov    %rsi,%r14
  40067e:	49 89 d5             	mov    %rdx,%r13
  400681:	4c 29 e5             	sub    %r12,%rbp
  400684:	48 83 ec 08          	sub    $0x8,%rsp
  400688:	48 c1 fd 03          	sar    $0x3,%rbp
  40068c:	e8 a7 fd ff ff       	callq  400438 <_init>
  400691:	48 85 ed             	test   %rbp,%rbp
  400694:	74 20                	je     4006b6 <__libc_csu_init+0x56>
  400696:	31 db                	xor    %ebx,%ebx
  400698:	0f 1f 84 00 00 00 00 	nopl   0x0(%rax,%rax,1)
  40069f:	00
  4006a0:	4c 89 ea             	mov    %r13,%rdx
  4006a3:	4c 89 f6             	mov    %r14,%rsi
  4006a6:	44 89 ff             	mov    %r15d,%edi
  4006a9:	41 ff 14 dc          	callq  *(%r12,%rbx,8)
  4006ad:	48 83 c3 01          	add    $0x1,%rbx
  4006b1:	48 39 eb             	cmp    %rbp,%rbx
  4006b4:	75 ea                	jne    4006a0 <__libc_csu_init+0x40>
  4006b6:	48 83 c4 08          	add    $0x8,%rsp
  4006ba:	5b                   	pop    %rbx
  4006bb:	5d                   	pop    %rbp
  4006bc:	41 5c                	pop    %r12
  4006be:	41 5d                	pop    %r13
  4006c0:	41 5e                	pop    %r14
  4006c2:	41 5f                	pop    %r15
  4006c4:	c3                   	retq
  4006c5:	90                   	nop
  4006c6:	66 2e 0f 1f 84 00 00 	nopw   %cs:0x0(%rax,%rax,1)
  4006cd:	00 00 00

00000000004006d0 <__libc_csu_fini>:
  4006d0:	f3 c3                	repz retq

Disassembly of section .fini:

00000000004006d4 <_fini>:
  4006d4:	48 83 ec 08          	sub    $0x8,%rsp
  4006d8:	48 83 c4 08          	add    $0x8,%rsp
  4006dc:	c3                   	retq
